target datalayout = "e-m:e-p270:32:32-p271:32:32-p272:64:64-i64:64-i128:128-f80:128-n8:16:32:64-S128"
target triple = "x86_64-pc-linux-gnu"

%struct.preference = type { ptr, ptr, ptr, i32, i32, i32, %union.anon, %union.anon.0, %union.anon.1, %union.anon.2, %struct.pref_custom_cbs, ptr, ptr }
%union.anon = type { ptr }
%union.anon.0 = type { ptr }
%union.anon.1 = type { ptr }
%union.anon.2 = type { %struct.anon }
%struct.anon = type { ptr, i8 }
%struct.pref_custom_cbs = type { ptr, ptr, ptr, ptr, ptr, ptr, ptr }

@.str.10 = private unnamed_addr constant [1 x i8] zeroinitializer, align 1

; Function Attrs: null_pointer_is_valid sspstrong uwtable
define internal void @register_string_like_preference(ptr noundef %0, ptr noundef %1, ptr noundef %2, ptr noundef %3, ptr noundef %4, i32 noundef %5, ptr noundef %6, i1 noundef zeroext %7) #1 {
  %9 = alloca ptr, align 8
  %10 = alloca ptr, align 8
  %11 = alloca ptr, align 8
  %12 = alloca ptr, align 8
  %13 = alloca ptr, align 8
  %14 = alloca i32, align 4
  %15 = alloca ptr, align 8
  %16 = alloca i8, align 1
  %17 = alloca ptr, align 8
  %18 = alloca ptr, align 8
  store ptr %0, ptr %9, align 8
  store ptr %1, ptr %10, align 8
  store ptr %2, ptr %11, align 8
  store ptr %3, ptr %12, align 8
  store ptr %4, ptr %13, align 8
  store i32 %5, ptr %14, align 4
  store ptr %6, ptr %15, align 8
  %19 = zext i1 %7 to i8
  store i8 %19, ptr %16, align 1
  call void @llvm.lifetime.start.p0(i64 8, ptr %17) #17
  call void @llvm.lifetime.start.p0(i64 8, ptr %18) #17
  %20 = load ptr, ptr %9, align 8
  %21 = load ptr, ptr %10, align 8
  %22 = load ptr, ptr %11, align 8
  %23 = load ptr, ptr %12, align 8
  %24 = load i32, ptr %14, align 4
  %25 = call ptr @register_preference(ptr noundef %20, ptr noundef %21, ptr noundef %22, ptr noundef %23, i32 noundef %24)
  store ptr %25, ptr %17, align 8
  %26 = load ptr, ptr %13, align 8
  %27 = load ptr, ptr %26, align 8
  store ptr %27, ptr %18, align 8
  %28 = load ptr, ptr %13, align 8
  %29 = load ptr, ptr %28, align 8
  %30 = icmp eq ptr %29, null
  br i1 %30, label %31, label %34

31:                                               ; preds = %8
  %32 = call noalias ptr @g_strdup(ptr noundef @.str.10)
  %33 = load ptr, ptr %13, align 8
  store ptr %32, ptr %33, align 8
  br label %39

34:                                               ; preds = %8
  %35 = load ptr, ptr %13, align 8
  %36 = load ptr, ptr %35, align 8
  %37 = call noalias ptr @g_strdup(ptr noundef %36)
  %38 = load ptr, ptr %13, align 8
  store ptr %37, ptr %38, align 8
  br label %39

39:                                               ; preds = %34, %31
  %40 = load i8, ptr %16, align 1, !range !6, !noundef !7
  %41 = trunc i8 %40 to i1
  br i1 %41, label %42, label %44

42:                                               ; preds = %39
  %43 = load ptr, ptr %18, align 8
  call void @g_free(ptr noundef %43)
  br label %44

44:                                               ; preds = %42, %39
  %45 = load ptr, ptr %13, align 8
  %46 = load ptr, ptr %17, align 8
  %47 = getelementptr inbounds nuw %struct.preference, ptr %46, i32 0, i32 6
  store ptr %45, ptr %47, align 8
  %48 = load ptr, ptr %13, align 8
  %49 = load ptr, ptr %48, align 8
  %50 = call noalias ptr @g_strdup(ptr noundef %49)
  %51 = load ptr, ptr %17, align 8
  %52 = getelementptr inbounds nuw %struct.preference, ptr %51, i32 0, i32 8
  store ptr %50, ptr %52, align 8
  %53 = load ptr, ptr %17, align 8
  %54 = getelementptr inbounds nuw %struct.preference, ptr %53, i32 0, i32 7
  store ptr null, ptr %54, align 8
  %55 = load i32, ptr %14, align 4
  %56 = icmp eq i32 %55, 512
  br i1 %56, label %57, label %64

57:                                               ; preds = %44
  br label %58

58:                                               ; preds = %57
  br label %59

59:                                               ; preds = %58
  br label %60

60:                                               ; preds = %59
  %61 = load ptr, ptr %17, align 8
  %62 = getelementptr inbounds nuw %struct.preference, ptr %61, i32 0, i32 10
  %63 = load ptr, ptr %15, align 8
  call void @llvm.memcpy.p0.p0.i64(ptr align 8 %62, ptr align 8 %63, i64 56, i1 false)
  br label %64

64:                                               ; preds = %60, %44
  call void @llvm.lifetime.end.p0(i64 8, ptr %18) #17
  call void @llvm.lifetime.end.p0(i64 8, ptr %17) #17
  ret void
}

; Function Attrs: null_pointer_is_valid sspstrong uwtable
define void @prefs_register_string_preference(ptr noundef %0, ptr noundef %1, ptr noundef %2, ptr noundef %3, ptr noundef %4) #1 {
  %6 = alloca ptr, align 8
  %7 = alloca ptr, align 8
  %8 = alloca ptr, align 8
  %9 = alloca ptr, align 8
  %10 = alloca ptr, align 8
  store ptr %0, ptr %6, align 8
  store ptr %1, ptr %7, align 8
  store ptr %2, ptr %8, align 8
  store ptr %3, ptr %9, align 8
  store ptr %4, ptr %10, align 8
  %11 = load ptr, ptr %6, align 8
  %12 = load ptr, ptr %7, align 8
  %13 = load ptr, ptr %8, align 8
  %14 = load ptr, ptr %9, align 8
  %15 = load ptr, ptr %10, align 8
  call void @register_string_like_preference(ptr noundef %11, ptr noundef %12, ptr noundef %13, ptr noundef %14, ptr noundef %15, i32 noundef 8, ptr noundef null, i1 noundef zeroext false)
  ret void
}