; Function Attrs: null_pointer_is_valid sspstrong uwtable
define void @prefs_register_string_preference(ptr noundef captures(address_is_null) %0, ptr noundef %1, ptr noundef %2, ptr noundef %3, ptr noundef %4) local_unnamed_addr #1 {
  %6 = tail call fastcc ptr @register_preference(ptr noundef %0, ptr noundef %1, ptr noundef %2, ptr noundef %3, i32 noundef 8)
  %7 = load ptr, ptr %4, align 8
  %8 = icmp eq ptr %7, null
  %.str.10..i = select i1 %8, ptr @.str.10, ptr %7
  %9 = tail call noalias ptr @g_strdup(ptr noundef nonnull %.str.10..i)
  store ptr %9, ptr %4, align 8
  %10 = getelementptr inbounds nuw i8, ptr %6, i64 40
  store ptr %4, ptr %10, align 8
  %11 = load ptr, ptr %4, align 8
  %12 = tail call noalias ptr @g_strdup(ptr noundef %11)
  %13 = getelementptr inbounds nuw i8, ptr %6, i64 56
  store ptr %12, ptr %13, align 8
  %14 = getelementptr inbounds nuw i8, ptr %6, i64 48
  store ptr null, ptr %14, align 8
  ret void
}